target datalayout = "e-m:e-p270:32:32-p271:32:32-p272:64:64-i64:64-i128:128-f80:128-n8:16:32:64-S128"
target triple = "x86_64-pc-linux-gnu"

%"class.cv::utils::trace::details::Region" = type <{ ptr, i32, [4 x i8] }>

; Function Attrs: mustprogress nounwind uwtable
define internal noundef ptr @_ZN2cvL9getSubTabEv() #2 {
  ret ptr @_ZZN2cvL9getSubTabEvE6subTab
}

; Function Attrs: mustprogress nounwind uwtable
define internal noundef ptr @_ZN2cvL13getSubExtFuncEiii(i32 noundef %0, i32 noundef %1, i32 noundef %2) #2 {
  %4 = alloca ptr, align 8
  %5 = alloca i32, align 4
  %6 = alloca i32, align 4
  %7 = alloca i32, align 4
  store i32 %0, ptr %5, align 4
  store i32 %1, ptr %6, align 4
  store i32 %2, ptr %7, align 4
  %8 = load i32, ptr %5, align 4
  %9 = icmp eq i32 %8, 0
  br i1 %9, label %10, label %17

10:                                               ; preds = %3
  %11 = load i32, ptr %6, align 4
  %12 = icmp eq i32 %11, 0
  br i1 %12, label %13, label %17

13:                                               ; preds = %10
  %14 = load i32, ptr %7, align 4
  %15 = icmp eq i32 %14, 5
  br i1 %15, label %16, label %17

16:                                               ; preds = %13
  store ptr @_ZN2cvL15sub8u32fWrapperEPKhmS1_mPhmiiPv, ptr %4, align 8
  br label %28

17:                                               ; preds = %13, %10, %3
  %18 = load i32, ptr %5, align 4
  %19 = icmp eq i32 %18, 1
  br i1 %19, label %20, label %27

20:                                               ; preds = %17
  %21 = load i32, ptr %6, align 4
  %22 = icmp eq i32 %21, 1
  br i1 %22, label %23, label %27

23:                                               ; preds = %20
  %24 = load i32, ptr %7, align 4
  %25 = icmp eq i32 %24, 5
  br i1 %25, label %26, label %27

26:                                               ; preds = %23
  store ptr @_ZN2cvL15sub8s32fWrapperEPKhmS1_mPhmiiPv, ptr %4, align 8
  br label %28

27:                                               ; preds = %23, %20, %17
  store ptr null, ptr %4, align 8
  br label %28

28:                                               ; preds = %27, %26, %16
  %29 = load ptr, ptr %4, align 8
  ret ptr %29
}

; Function Attrs: mustprogress uwtable
define void @_ZN2cv8subtractERKNS_11_InputArrayES2_RKNS_12_OutputArrayES2_i(ptr noundef nonnull align 8 dereferenceable(24) %0, ptr noundef nonnull align 8 dereferenceable(24) %1, ptr noundef nonnull align 8 dereferenceable(24) %2, ptr noundef nonnull align 8 dereferenceable(24) %3, i32 noundef %4) #0 personality ptr @__gxx_personality_v0 {
  %6 = alloca ptr, align 8
  %7 = alloca ptr, align 8
  %8 = alloca ptr, align 8
  %9 = alloca ptr, align 8
  %10 = alloca i32, align 4
  %11 = alloca %"class.cv::utils::trace::details::Region", align 8
  %12 = alloca ptr, align 8
  %13 = alloca ptr, align 8
  %14 = alloca i32, align 4
  store ptr %0, ptr %6, align 8
  store ptr %1, ptr %7, align 8
  store ptr %2, ptr %8, align 8
  store ptr %3, ptr %9, align 8
  store i32 %4, ptr %10, align 4
  call void @_ZN2cv5utils5trace7details6RegionC1ERKNS3_21LocationStaticStorageE(ptr noundef nonnull align 8 dereferenceable(12) %11, ptr noundef nonnull align 8 dereferenceable(32) @_ZZN2cv8subtractERKNS_11_InputArrayES2_RKNS_12_OutputArrayES2_iE26__cv_trace_location_fn1006)
  %15 = load ptr, ptr %6, align 8
  %16 = invoke noundef i32 @_ZNK2cv11_InputArray5depthEi(ptr noundef nonnull align 8 dereferenceable(24) %15, i32 noundef -1)
          to label %17 unwind label %42

17:                                               ; preds = %5
  %18 = load ptr, ptr %7, align 8
  %19 = invoke noundef i32 @_ZNK2cv11_InputArray5depthEi(ptr noundef nonnull align 8 dereferenceable(24) %18, i32 noundef -1)
          to label %20 unwind label %42

20:                                               ; preds = %17
  %21 = load i32, ptr %10, align 4
  %22 = icmp slt i32 %21, 0
  br i1 %22, label %23, label %27

23:                                               ; preds = %20
  %24 = load ptr, ptr %8, align 8
  %25 = invoke noundef i32 @_ZNK2cv11_InputArray5depthEi(ptr noundef nonnull align 8 dereferenceable(24) %24, i32 noundef -1)
          to label %26 unwind label %42

26:                                               ; preds = %23
  br label %29

27:                                               ; preds = %20
  %28 = load i32, ptr %10, align 4
  br label %29

29:                                               ; preds = %27, %26
  %30 = phi i32 [ %25, %26 ], [ %28, %27 ]
  %31 = invoke noundef ptr @_ZN2cvL13getSubExtFuncEiii(i32 noundef %16, i32 noundef %19, i32 noundef %30)
          to label %32 unwind label %42

32:                                               ; preds = %29
  store ptr %31, ptr %12, align 8
  %33 = load ptr, ptr %6, align 8
  %34 = load ptr, ptr %7, align 8
  %35 = load ptr, ptr %8, align 8
  %36 = load ptr, ptr %9, align 8
  %37 = load i32, ptr %10, align 4
  %38 = invoke noundef ptr @_ZN2cvL9getSubTabEv()
          to label %39 unwind label %42

39:                                               ; preds = %32
  %40 = load ptr, ptr %12, align 8
  invoke void @_ZN2cvL9arithm_opERKNS_11_InputArrayES2_RKNS_12_OutputArrayES2_iPPFvPKhmS7_mPhmiiPvEbS9_iPFiS7_mS7_mS8_miiS9_E(ptr noundef nonnull align 8 dereferenceable(24) %33, ptr noundef nonnull align 8 dereferenceable(24) %34, ptr noundef nonnull align 8 dereferenceable(24) %35, ptr noundef nonnull align 8 dereferenceable(24) %36, i32 noundef %37, ptr noundef %38, i1 noundef zeroext false, ptr noundef null, i32 noundef 1, ptr noundef %40)
          to label %41 unwind label %42

41:                                               ; preds = %39
  call void @_ZN2cv5utils5trace7details6RegionD2Ev(ptr noundef nonnull align 8 dereferenceable(12) %11) #13
  ret void

42:                                               ; preds = %39, %32, %29, %23, %17, %5
  %43 = landingpad { ptr, i32 }
          cleanup
  %44 = extractvalue { ptr, i32 } %43, 0
  store ptr %44, ptr %13, align 8
  %45 = extractvalue { ptr, i32 } %43, 1
  store i32 %45, ptr %14, align 4
  call void @_ZN2cv5utils5trace7details6RegionD2Ev(ptr noundef nonnull align 8 dereferenceable(12) %11) #13
  br label %46

46:                                               ; preds = %42
  %47 = load ptr, ptr %13, align 8
  %48 = load i32, ptr %14, align 4
  %49 = insertvalue { ptr, i32 } poison, ptr %47, 0
  %50 = insertvalue { ptr, i32 } %49, i32 %48, 1
  resume { ptr, i32 } %50
}