; Function Attrs: mustprogress uwtable
define void @_ZN2cv8subtractERKNS_11_InputArrayES2_RKNS_12_OutputArrayES2_i(ptr noundef nonnull align 8 dereferenceable(24) %0, ptr noundef nonnull align 8 dereferenceable(24) %1, ptr noundef nonnull align 8 dereferenceable(24) %2, ptr noundef nonnull align 8 dereferenceable(24) %3, i32 noundef %4) local_unnamed_addr #0 personality ptr @__gxx_personality_v0 {
  %6 = alloca %"class.cv::utils::trace::details::Region", align 8
  call void @_ZN2cv5utils5trace7details6RegionC1ERKNS3_21LocationStaticStorageE(ptr noundef nonnull align 8 dereferenceable(12) %6, ptr noundef nonnull align 8 dereferenceable(32) @_ZZN2cv8subtractERKNS_11_InputArrayES2_RKNS_12_OutputArrayES2_iE26__cv_trace_location_fn1006)
  %7 = invoke noundef i32 @_ZNK2cv11_InputArray5depthEi(ptr noundef nonnull align 8 dereferenceable(24) %0, i32 noundef -1)
          to label %8 unwind label %28

8:                                                ; preds = %5
  %9 = invoke noundef i32 @_ZNK2cv11_InputArray5depthEi(ptr noundef nonnull align 8 dereferenceable(24) %1, i32 noundef -1)
          to label %10 unwind label %28

10:                                               ; preds = %8
  %11 = icmp slt i32 %4, 0
  br i1 %11, label %12, label %14

12:                                               ; preds = %10
  %13 = invoke noundef i32 @_ZNK2cv11_InputArray5depthEi(ptr noundef nonnull align 8 dereferenceable(24) %2, i32 noundef -1)
          to label %14 unwind label %28

14:                                               ; preds = %10, %12
  %15 = phi i32 [ %13, %12 ], [ %4, %10 ]
  %16 = or i32 %9, %7
  %or.cond.i = icmp eq i32 %16, 0
  %17 = icmp eq i32 %15, 5
  %or.cond3.i = and i1 %or.cond.i, %17
  br i1 %or.cond3.i, label %_ZN2cvL13getSubExtFuncEiii.exit, label %18

18:                                               ; preds = %14
  %19 = icmp eq i32 %7, 1
  %20 = icmp eq i32 %9, 1
  %or.cond5.i = and i1 %19, %20
  %or.cond7.i = and i1 %or.cond5.i, %17
  %_ZN2cvL15sub8s32fWrapperEPKhmS1_mPhmiiPv..i = select i1 %or.cond7.i, ptr @_ZN2cvL15sub8s32fWrapperEPKhmS1_mPhmiiPv, ptr null
  br label %_ZN2cvL13getSubExtFuncEiii.exit

_ZN2cvL13getSubExtFuncEiii.exit:                  ; preds = %14, %18
  %.0.i = phi ptr [ @_ZN2cvL15sub8u32fWrapperEPKhmS1_mPhmiiPv, %14 ], [ %_ZN2cvL15sub8s32fWrapperEPKhmS1_mPhmiiPv..i, %18 ]
  invoke fastcc void @_ZN2cvL9arithm_opERKNS_11_InputArrayES2_RKNS_12_OutputArrayES2_iPPFvPKhmS7_mPhmiiPvEbS9_iPFiS7_mS7_mS8_miiS9_E(ptr noundef nonnull align 8 dereferenceable(24) %0, ptr noundef nonnull align 8 dereferenceable(24) %1, ptr noundef nonnull align 8 dereferenceable(24) %2, ptr noundef nonnull align 8 dereferenceable(24) %3, i32 noundef %4, ptr noundef nonnull @_ZZN2cvL9getSubTabEvE6subTab, i1 noundef zeroext false, ptr noundef null, ptr noundef %.0.i)
          to label %21 unwind label %28

21:                                               ; preds = %_ZN2cvL13getSubExtFuncEiii.exit
  %22 = getelementptr inbounds i8, ptr %6, i64 8
  %23 = load i32, ptr %22, align 8
  %.not.i = icmp eq i32 %23, 0
  br i1 %.not.i, label %_ZN2cv5utils5trace7details6RegionD2Ev.exit, label %24

24:                                               ; preds = %21
  invoke void @_ZN2cv5utils5trace7details6Region7destroyEv(ptr noundef nonnull align 8 dereferenceable(12) %6)
          to label %_ZN2cv5utils5trace7details6RegionD2Ev.exit unwind label %25

25:                                               ; preds = %24
  %26 = landingpad { ptr, i32 }
          catch ptr null
  %27 = extractvalue { ptr, i32 } %26, 0
  call void @__clang_call_terminate(ptr %27) #17
  unreachable

_ZN2cv5utils5trace7details6RegionD2Ev.exit:       ; preds = %21, %24
  ret void

28:                                               ; preds = %_ZN2cvL13getSubExtFuncEiii.exit, %12, %8, %5
  %29 = landingpad { ptr, i32 }
          cleanup
  call void @_ZN2cv5utils5trace7details6RegionD2Ev(ptr noundef nonnull align 8 dereferenceable(12) %6) #18
  resume { ptr, i32 } %29
}